(dp1
S'expInitials'
p2
Vgl
p3
sS'locationMapping'
p4
VGL
p5
sS'subjCode'
p6
Varocket_test7
p7
sS'gender'
p8
Vm
sS'mapping'
p9
VG1
p10
sS'expName'
p11
S'same-gekTalp-noDelay-question-HTEST'
p12
sS'dateStr'
p13
V2017_Jul_03_2300
p14
sS'responseDevice'
p15
Vkeyboard
p16
sS'seed'
p17
I100
sS'order'
p18
S'1'
sS'categoryStructure'
p19
S'CC'
p20
s.